target datalayout = "e-m:e-p270:32:32-p271:32:32-p272:64:64-i64:64-i128:128-f80:128-n8:16:32:64-S128"
target triple = "x86_64-unknown-linux-gnu"

%class.btVector3 = type { [4 x float] }

; Function Attrs: mustprogress nounwind uwtable
define linkonce_odr dso_local noundef float @_ZNK9btVector33dotERKS_(ptr noundef nonnull align 4 dereferenceable(16) %this, ptr noundef nonnull align 4 dereferenceable(16) %v) #1 comdat align 2 {
entry:
  %this.addr = alloca ptr, align 8
  %v.addr = alloca ptr, align 8
  store ptr %this, ptr %this.addr, align 8
  store ptr %v, ptr %v.addr, align 8
  %this1 = load ptr, ptr %this.addr, align 8
  %m_floats = getelementptr inbounds %class.btVector3, ptr %this1, i32 0, i32 0
  %arrayidx = getelementptr inbounds [4 x float], ptr %m_floats, i64 0, i64 0
  %0 = load float, ptr %arrayidx, align 4
  %1 = load ptr, ptr %v.addr, align 8
  %m_floats2 = getelementptr inbounds %class.btVector3, ptr %1, i32 0, i32 0
  %arrayidx3 = getelementptr inbounds [4 x float], ptr %m_floats2, i64 0, i64 0
  %2 = load float, ptr %arrayidx3, align 4
  %m_floats4 = getelementptr inbounds %class.btVector3, ptr %this1, i32 0, i32 0
  %arrayidx5 = getelementptr inbounds [4 x float], ptr %m_floats4, i64 0, i64 1
  %3 = load float, ptr %arrayidx5, align 4
  %4 = load ptr, ptr %v.addr, align 8
  %m_floats6 = getelementptr inbounds %class.btVector3, ptr %4, i32 0, i32 0
  %arrayidx7 = getelementptr inbounds [4 x float], ptr %m_floats6, i64 0, i64 1
  %5 = load float, ptr %arrayidx7, align 4
  %mul8 = fmul float %3, %5
  %6 = call float @llvm.fmuladd.f32(float %0, float %2, float %mul8)
  %m_floats9 = getelementptr inbounds %class.btVector3, ptr %this1, i32 0, i32 0
  %arrayidx10 = getelementptr inbounds [4 x float], ptr %m_floats9, i64 0, i64 2
  %7 = load float, ptr %arrayidx10, align 4
  %8 = load ptr, ptr %v.addr, align 8
  %m_floats11 = getelementptr inbounds %class.btVector3, ptr %8, i32 0, i32 0
  %arrayidx12 = getelementptr inbounds [4 x float], ptr %m_floats11, i64 0, i64 2
  %9 = load float, ptr %arrayidx12, align 4
  %10 = call float @llvm.fmuladd.f32(float %7, float %9, float %6)
  ret float %10
}

; Function Attrs: mustprogress nounwind uwtable
define linkonce_odr dso_local noundef i64 @_ZNK9btVector36maxDotEPKS_lRf(ptr noundef nonnull align 4 dereferenceable(16) %this, ptr noundef %array, i64 noundef %array_count, ptr noundef nonnull align 4 dereferenceable(4) %dotOut) #1 comdat align 2 {
entry:
  %this.addr = alloca ptr, align 8
  %array.addr = alloca ptr, align 8
  %array_count.addr = alloca i64, align 8
  %dotOut.addr = alloca ptr, align 8
  %maxDot1 = alloca float, align 4
  %i = alloca i32, align 4
  %ptIndex = alloca i32, align 4
  %dot = alloca float, align 4
  store ptr %this, ptr %this.addr, align 8
  store ptr %array, ptr %array.addr, align 8
  store i64 %array_count, ptr %array_count.addr, align 8
  store ptr %dotOut, ptr %dotOut.addr, align 8
  %this1 = load ptr, ptr %this.addr, align 8
  store float 0xC7EFFFFFE0000000, ptr %maxDot1, align 4
  store i32 0, ptr %i, align 4
  store i32 -1, ptr %ptIndex, align 4
  store i32 0, ptr %i, align 4
  br label %for.cond

for.cond:                                         ; preds = %for.inc, %entry
  %0 = load i32, ptr %i, align 4
  %conv = sext i32 %0 to i64
  %1 = load i64, ptr %array_count.addr, align 8
  %cmp = icmp slt i64 %conv, %1
  br i1 %cmp, label %for.body, label %for.end

for.body:                                         ; preds = %for.cond
  %2 = load ptr, ptr %array.addr, align 8
  %3 = load i32, ptr %i, align 4
  %idxprom = sext i32 %3 to i64
  %arrayidx = getelementptr inbounds %class.btVector3, ptr %2, i64 %idxprom
  %call = call noundef float @_ZNK9btVector33dotERKS_(ptr noundef nonnull align 4 dereferenceable(16) %arrayidx, ptr noundef nonnull align 4 dereferenceable(16) %this1)
  store float %call, ptr %dot, align 4
  %4 = load float, ptr %dot, align 4
  %5 = load float, ptr %maxDot1, align 4
  %cmp2 = fcmp ogt float %4, %5
  br i1 %cmp2, label %if.then, label %if.end

if.then:                                          ; preds = %for.body
  %6 = load float, ptr %dot, align 4
  store float %6, ptr %maxDot1, align 4
  %7 = load i32, ptr %i, align 4
  store i32 %7, ptr %ptIndex, align 4
  br label %if.end

if.end:                                           ; preds = %if.then, %for.body
  br label %for.inc

for.inc:                                          ; preds = %if.end
  %8 = load i32, ptr %i, align 4
  %inc = add nsw i32 %8, 1
  store i32 %inc, ptr %i, align 4
  br label %for.cond, !llvm.loop !16

for.end:                                          ; preds = %for.cond
  %9 = load float, ptr %maxDot1, align 4
  %10 = load ptr, ptr %dotOut.addr, align 8
  store float %9, ptr %10, align 4
  %11 = load i32, ptr %ptIndex, align 4
  %conv3 = sext i32 %11 to i64
  ret i64 %conv3
}

; Function Attrs: mustprogress nounwind uwtable
define linkonce_odr dso_local void @_ZN9btVector3C2Ev(ptr noundef nonnull align 4 dereferenceable(16) %this) unnamed_addr #1 comdat align 2 {
entry:
  %this.addr = alloca ptr, align 8
  store ptr %this, ptr %this.addr, align 8
  ret void
}

; Function Attrs: mustprogress nounwind uwtable
define linkonce_odr dso_local noundef nonnull align 4 dereferenceable(16) ptr @_ZN9btVector3mLERKf(ptr noundef nonnull align 4 dereferenceable(16) %this, ptr noundef nonnull align 4 dereferenceable(4) %s) #1 comdat align 2 {
entry:
  %this.addr = alloca ptr, align 8
  %s.addr = alloca ptr, align 8
  store ptr %this, ptr %this.addr, align 8
  store ptr %s, ptr %s.addr, align 8
  %this1 = load ptr, ptr %this.addr, align 8
  %0 = load ptr, ptr %s.addr, align 8
  %1 = load float, ptr %0, align 4
  %m_floats = getelementptr inbounds %class.btVector3, ptr %this1, i32 0, i32 0
  %arrayidx = getelementptr inbounds [4 x float], ptr %m_floats, i64 0, i64 0
  %2 = load float, ptr %arrayidx, align 4
  %mul = fmul float %2, %1
  store float %mul, ptr %arrayidx, align 4
  %3 = load ptr, ptr %s.addr, align 8
  %4 = load float, ptr %3, align 4
  %m_floats2 = getelementptr inbounds %class.btVector3, ptr %this1, i32 0, i32 0
  %arrayidx3 = getelementptr inbounds [4 x float], ptr %m_floats2, i64 0, i64 1
  %5 = load float, ptr %arrayidx3, align 4
  %mul4 = fmul float %5, %4
  store float %mul4, ptr %arrayidx3, align 4
  %6 = load ptr, ptr %s.addr, align 8
  %7 = load float, ptr %6, align 4
  %m_floats5 = getelementptr inbounds %class.btVector3, ptr %this1, i32 0, i32 0
  %arrayidx6 = getelementptr inbounds [4 x float], ptr %m_floats5, i64 0, i64 2
  %8 = load float, ptr %arrayidx6, align 4
  %mul7 = fmul float %8, %7
  store float %mul7, ptr %arrayidx6, align 4
  ret ptr %this1
}

; Function Attrs: mustprogress nounwind uwtable
define linkonce_odr dso_local noundef float @_Z6btSqrtf(float noundef %y) #1 comdat {
entry:
  %y.addr = alloca float, align 4
  store float %y, ptr %y.addr, align 4
  %0 = load float, ptr %y.addr, align 4
  %call = call float @sqrtf(float noundef %0) #8
  ret float %call
}

; Function Attrs: mustprogress nounwind uwtable
define linkonce_odr dso_local void @_ZN9btVector38setValueERKfS1_S1_(ptr noundef nonnull align 4 dereferenceable(16) %this, ptr noundef nonnull align 4 dereferenceable(4) %_x, ptr noundef nonnull align 4 dereferenceable(4) %_y, ptr noundef nonnull align 4 dereferenceable(4) %_z) #1 comdat align 2 {
entry:
  %this.addr = alloca ptr, align 8
  %_x.addr = alloca ptr, align 8
  %_y.addr = alloca ptr, align 8
  %_z.addr = alloca ptr, align 8
  store ptr %this, ptr %this.addr, align 8
  store ptr %_x, ptr %_x.addr, align 8
  store ptr %_y, ptr %_y.addr, align 8
  store ptr %_z, ptr %_z.addr, align 8
  %this1 = load ptr, ptr %this.addr, align 8
  %0 = load ptr, ptr %_x.addr, align 8
  %1 = load float, ptr %0, align 4
  %m_floats = getelementptr inbounds %class.btVector3, ptr %this1, i32 0, i32 0
  %arrayidx = getelementptr inbounds [4 x float], ptr %m_floats, i64 0, i64 0
  store float %1, ptr %arrayidx, align 4
  %2 = load ptr, ptr %_y.addr, align 8
  %3 = load float, ptr %2, align 4
  %m_floats2 = getelementptr inbounds %class.btVector3, ptr %this1, i32 0, i32 0
  %arrayidx3 = getelementptr inbounds [4 x float], ptr %m_floats2, i64 0, i64 1
  store float %3, ptr %arrayidx3, align 4
  %4 = load ptr, ptr %_z.addr, align 8
  %5 = load float, ptr %4, align 4
  %m_floats4 = getelementptr inbounds %class.btVector3, ptr %this1, i32 0, i32 0
  %arrayidx5 = getelementptr inbounds [4 x float], ptr %m_floats4, i64 0, i64 2
  store float %5, ptr %arrayidx5, align 4
  %m_floats6 = getelementptr inbounds %class.btVector3, ptr %this1, i32 0, i32 0
  %arrayidx7 = getelementptr inbounds [4 x float], ptr %m_floats6, i64 0, i64 3
  store float 0.000000e+00, ptr %arrayidx7, align 4
  ret void
}

; Function Attrs: mustprogress nounwind uwtable
define linkonce_odr dso_local noundef float @_ZNK9btVector37length2Ev(ptr noundef nonnull align 4 dereferenceable(16) %this) #1 comdat align 2 {
entry:
  %this.addr = alloca ptr, align 8
  store ptr %this, ptr %this.addr, align 8
  %this1 = load ptr, ptr %this.addr, align 8
  %call = call noundef float @_ZNK9btVector33dotERKS_(ptr noundef nonnull align 4 dereferenceable(16) %this1, ptr noundef nonnull align 4 dereferenceable(16) %this1)
  ret float %call
}

; Function Attrs: mustprogress nounwind uwtable
define linkonce_odr dso_local void @_ZN9btVector3C2ERKfS1_S1_(ptr noundef nonnull align 4 dereferenceable(16) %this, ptr noundef nonnull align 4 dereferenceable(4) %_x, ptr noundef nonnull align 4 dereferenceable(4) %_y, ptr noundef nonnull align 4 dereferenceable(4) %_z) unnamed_addr #1 comdat align 2 {
entry:
  %this.addr = alloca ptr, align 8
  %_x.addr = alloca ptr, align 8
  %_y.addr = alloca ptr, align 8
  %_z.addr = alloca ptr, align 8
  store ptr %this, ptr %this.addr, align 8
  store ptr %_x, ptr %_x.addr, align 8
  store ptr %_y, ptr %_y.addr, align 8
  store ptr %_z, ptr %_z.addr, align 8
  %this1 = load ptr, ptr %this.addr, align 8
  %0 = load ptr, ptr %_x.addr, align 8
  %1 = load float, ptr %0, align 4
  %m_floats = getelementptr inbounds %class.btVector3, ptr %this1, i32 0, i32 0
  %arrayidx = getelementptr inbounds [4 x float], ptr %m_floats, i64 0, i64 0
  store float %1, ptr %arrayidx, align 4
  %2 = load ptr, ptr %_y.addr, align 8
  %3 = load float, ptr %2, align 4
  %m_floats2 = getelementptr inbounds %class.btVector3, ptr %this1, i32 0, i32 0
  %arrayidx3 = getelementptr inbounds [4 x float], ptr %m_floats2, i64 0, i64 1
  store float %3, ptr %arrayidx3, align 4
  %4 = load ptr, ptr %_z.addr, align 8
  %5 = load float, ptr %4, align 4
  %m_floats4 = getelementptr inbounds %class.btVector3, ptr %this1, i32 0, i32 0
  %arrayidx5 = getelementptr inbounds [4 x float], ptr %m_floats4, i64 0, i64 2
  store float %5, ptr %arrayidx5, align 4
  %m_floats6 = getelementptr inbounds %class.btVector3, ptr %this1, i32 0, i32 0
  %arrayidx7 = getelementptr inbounds [4 x float], ptr %m_floats6, i64 0, i64 3
  store float 0.000000e+00, ptr %arrayidx7, align 4
  ret void
}

; Function Attrs: mustprogress uwtable
define dso_local { <2 x float>, <2 x float> } @_ZNK23btPolyhedralConvexShape37localGetSupportingVertexWithoutMarginERK9btVector3(ptr noundef nonnull align 8 dereferenceable(80) %this, ptr noundef nonnull align 4 dereferenceable(16) %vec0) unnamed_addr #2 align 2 {
entry:
  %retval = alloca %class.btVector3, align 4
  %this.addr = alloca ptr, align 8
  %vec0.addr = alloca ptr, align 8
  %ref.tmp = alloca float, align 4
  %ref.tmp2 = alloca float, align 4
  %ref.tmp3 = alloca float, align 4
  %i = alloca i32, align 4
  %maxDot = alloca float, align 4
  %vec = alloca %class.btVector3, align 4
  %lenSqr = alloca float, align 4
  %ref.tmp4 = alloca float, align 4
  %ref.tmp5 = alloca float, align 4
  %ref.tmp6 = alloca float, align 4
  %rlen = alloca float, align 4
  %vtx = alloca %class.btVector3, align 4
  %newDot = alloca float, align 4
  %k = alloca i32, align 4
  %temp = alloca [128 x %class.btVector3], align 16
  %inner_count = alloca i32, align 4
  store ptr %this, ptr %this.addr, align 8
  store ptr %vec0, ptr %vec0.addr, align 8
  %this1 = load ptr, ptr %this.addr, align 8
  store float 0.000000e+00, ptr %ref.tmp, align 4
  store float 0.000000e+00, ptr %ref.tmp2, align 4
  store float 0.000000e+00, ptr %ref.tmp3, align 4
  call void @_ZN9btVector3C2ERKfS1_S1_(ptr noundef nonnull align 4 dereferenceable(16) %retval, ptr noundef nonnull align 4 dereferenceable(4) %ref.tmp, ptr noundef nonnull align 4 dereferenceable(4) %ref.tmp2, ptr noundef nonnull align 4 dereferenceable(4) %ref.tmp3)
  store float 0xC3ABC16D60000000, ptr %maxDot, align 4
  %0 = load ptr, ptr %vec0.addr, align 8
  call void @llvm.memcpy.p0.p0.i64(ptr align 4 %vec, ptr align 4 %0, i64 16, i1 false)
  %call = call noundef float @_ZNK9btVector37length2Ev(ptr noundef nonnull align 4 dereferenceable(16) %vec)
  store float %call, ptr %lenSqr, align 4
  %1 = load float, ptr %lenSqr, align 4
  %cmp = fcmp olt float %1, 0x3F1A36E2E0000000
  br i1 %cmp, label %if.then, label %if.else

if.then:                                          ; preds = %entry
  store float 1.000000e+00, ptr %ref.tmp4, align 4
  store float 0.000000e+00, ptr %ref.tmp5, align 4
  store float 0.000000e+00, ptr %ref.tmp6, align 4
  call void @_ZN9btVector38setValueERKfS1_S1_(ptr noundef nonnull align 4 dereferenceable(16) %vec, ptr noundef nonnull align 4 dereferenceable(4) %ref.tmp4, ptr noundef nonnull align 4 dereferenceable(4) %ref.tmp5, ptr noundef nonnull align 4 dereferenceable(4) %ref.tmp6)
  br label %if.end

if.else:                                          ; preds = %entry
  %2 = load float, ptr %lenSqr, align 4
  %call7 = call noundef float @_Z6btSqrtf(float noundef %2)
  %div = fdiv float 1.000000e+00, %call7
  store float %div, ptr %rlen, align 4
  %call8 = call noundef nonnull align 4 dereferenceable(16) ptr @_ZN9btVector3mLERKf(ptr noundef nonnull align 4 dereferenceable(16) %vec, ptr noundef nonnull align 4 dereferenceable(4) %rlen)
  br label %if.end

if.end:                                           ; preds = %if.else, %if.then
  call void @_ZN9btVector3C2Ev(ptr noundef nonnull align 4 dereferenceable(16) %vtx)
  store i32 0, ptr %k, align 4
  br label %for.cond

for.cond:                                         ; preds = %for.inc31, %if.end
  %3 = load i32, ptr %k, align 4
  %vtable = load ptr, ptr %this1, align 8
  %vfn = getelementptr inbounds ptr, ptr %vtable, i64 25
  %4 = load ptr, ptr %vfn, align 8
  %call9 = call noundef i32 %4(ptr noundef nonnull align 8 dereferenceable(80) %this1)
  %cmp10 = icmp slt i32 %3, %call9
  br i1 %cmp10, label %for.body, label %for.end32

for.body:                                         ; preds = %for.cond
  %array.begin = getelementptr inbounds [128 x %class.btVector3], ptr %temp, i32 0, i32 0
  %arrayctor.end = getelementptr inbounds %class.btVector3, ptr %array.begin, i64 128
  br label %arrayctor.loop

arrayctor.loop:                                   ; preds = %arrayctor.loop, %for.body
  %arrayctor.cur = phi ptr [ %array.begin, %for.body ], [ %arrayctor.next, %arrayctor.loop ]
  call void @_ZN9btVector3C2Ev(ptr noundef nonnull align 4 dereferenceable(16) %arrayctor.cur)
  %arrayctor.next = getelementptr inbounds %class.btVector3, ptr %arrayctor.cur, i64 1
  %arrayctor.done = icmp eq ptr %arrayctor.next, %arrayctor.end
  br i1 %arrayctor.done, label %arrayctor.cont, label %arrayctor.loop

arrayctor.cont:                                   ; preds = %arrayctor.loop
  %vtable11 = load ptr, ptr %this1, align 8
  %vfn12 = getelementptr inbounds ptr, ptr %vtable11, i64 25
  %5 = load ptr, ptr %vfn12, align 8
  %call13 = call noundef i32 %5(ptr noundef nonnull align 8 dereferenceable(80) %this1)
  %6 = load i32, ptr %k, align 4
  %sub = sub nsw i32 %call13, %6
  %cmp14 = icmp slt i32 %sub, 128
  br i1 %cmp14, label %cond.true, label %cond.false

cond.true:                                        ; preds = %arrayctor.cont
  %vtable15 = load ptr, ptr %this1, align 8
  %vfn16 = getelementptr inbounds ptr, ptr %vtable15, i64 25
  %7 = load ptr, ptr %vfn16, align 8
  %call17 = call noundef i32 %7(ptr noundef nonnull align 8 dereferenceable(80) %this1)
  %8 = load i32, ptr %k, align 4
  %sub18 = sub nsw i32 %call17, %8
  br label %cond.end

cond.false:                                       ; preds = %arrayctor.cont
  br label %cond.end

cond.end:                                         ; preds = %cond.false, %cond.true
  %cond = phi i32 [ %sub18, %cond.true ], [ 128, %cond.false ]
  store i32 %cond, ptr %inner_count, align 4
  store i32 0, ptr %i, align 4
  br label %for.cond19

for.cond19:                                       ; preds = %for.inc, %cond.end
  %9 = load i32, ptr %i, align 4
  %10 = load i32, ptr %inner_count, align 4
  %cmp20 = icmp slt i32 %9, %10
  br i1 %cmp20, label %for.body21, label %for.end

for.body21:                                       ; preds = %for.cond19
  %11 = load i32, ptr %i, align 4
  %12 = load i32, ptr %i, align 4
  %idxprom = sext i32 %12 to i64
  %arrayidx = getelementptr inbounds [128 x %class.btVector3], ptr %temp, i64 0, i64 %idxprom
  %vtable22 = load ptr, ptr %this1, align 8
  %vfn23 = getelementptr inbounds ptr, ptr %vtable22, i64 28
  %13 = load ptr, ptr %vfn23, align 8
  call void %13(ptr noundef nonnull align 8 dereferenceable(80) %this1, i32 noundef %11, ptr noundef nonnull align 4 dereferenceable(16) %arrayidx)
  br label %for.inc

for.inc:                                          ; preds = %for.body21
  %14 = load i32, ptr %i, align 4
  %inc = add nsw i32 %14, 1
  store i32 %inc, ptr %i, align 4
  br label %for.cond19, !llvm.loop !14

for.end:                                          ; preds = %for.cond19
  %arraydecay = getelementptr inbounds [128 x %class.btVector3], ptr %temp, i64 0, i64 0
  %15 = load i32, ptr %inner_count, align 4
  %conv = sext i32 %15 to i64
  %call24 = call noundef i64 @_ZNK9btVector36maxDotEPKS_lRf(ptr noundef nonnull align 4 dereferenceable(16) %vec, ptr noundef %arraydecay, i64 noundef %conv, ptr noundef nonnull align 4 dereferenceable(4) %newDot)
  %conv25 = trunc i64 %call24 to i32
  store i32 %conv25, ptr %i, align 4
  %16 = load float, ptr %newDot, align 4
  %17 = load float, ptr %maxDot, align 4
  %cmp26 = fcmp ogt float %16, %17
  br i1 %cmp26, label %if.then27, label %if.end30

if.then27:                                        ; preds = %for.end
  %18 = load float, ptr %newDot, align 4
  store float %18, ptr %maxDot, align 4
  %19 = load i32, ptr %i, align 4
  %idxprom28 = sext i32 %19 to i64
  %arrayidx29 = getelementptr inbounds [128 x %class.btVector3], ptr %temp, i64 0, i64 %idxprom28
  call void @llvm.memcpy.p0.p0.i64(ptr align 4 %retval, ptr align 16 %arrayidx29, i64 16, i1 false)
  br label %if.end30

if.end30:                                         ; preds = %if.then27, %for.end
  br label %for.inc31

for.inc31:                                        ; preds = %if.end30
  %20 = load i32, ptr %k, align 4
  %add = add nsw i32 %20, 128
  store i32 %add, ptr %k, align 4
  br label %for.cond, !llvm.loop !15

for.end32:                                        ; preds = %for.cond
  %coerce.dive = getelementptr inbounds %class.btVector3, ptr %retval, i32 0, i32 0
  %21 = load { <2 x float>, <2 x float> }, ptr %coerce.dive, align 4
  ret { <2 x float>, <2 x float> } %21
}