; Function Attrs: mustprogress uwtable
define dso_local { <2 x float>, <2 x float> } @_ZNK23btPolyhedralConvexShape37localGetSupportingVertexWithoutMarginERK9btVector3(ptr noundef nonnull align 8 dereferenceable(80) %this, ptr nocapture noundef nonnull readonly align 4 dereferenceable(16) %vec0) unnamed_addr #0 align 2 {
entry:
  %temp = alloca [128 x %class.btVector3], align 16
  %vec.sroa.0.0.copyload = load float, ptr %vec0, align 4
  %vec.sroa.6.0.vec0.sroa_idx = getelementptr inbounds i8, ptr %vec0, i64 4
  %vec.sroa.6.0.copyload = load float, ptr %vec.sroa.6.0.vec0.sroa_idx, align 4
  %vec.sroa.11.0.vec0.sroa_idx = getelementptr inbounds i8, ptr %vec0, i64 8
  %vec.sroa.11.0.copyload = load float, ptr %vec.sroa.11.0.vec0.sroa_idx, align 4
  %mul8.i.i = fmul float %vec.sroa.6.0.copyload, %vec.sroa.6.0.copyload
  %0 = tail call float @llvm.fmuladd.f32(float %vec.sroa.0.0.copyload, float %vec.sroa.0.0.copyload, float %mul8.i.i)
  %1 = tail call noundef float @llvm.fmuladd.f32(float %vec.sroa.11.0.copyload, float %vec.sroa.11.0.copyload, float %0)
  %cmp = fcmp olt float %1, 0x3F1A36E2E0000000
  br i1 %cmp, label %if.end, label %if.else

if.else:                                          ; preds = %entry
  %sqrt = tail call float @llvm.sqrt.f32(float %1)
  %div = fdiv float 1.000000e+00, %sqrt
  %mul.i = fmul float %vec.sroa.0.0.copyload, %div
  %mul4.i = fmul float %vec.sroa.6.0.copyload, %div
  %mul7.i = fmul float %vec.sroa.11.0.copyload, %div
  br label %if.end

if.end:                                           ; preds = %entry, %if.else
  %vec.sroa.0.0 = phi float [ %mul.i, %if.else ], [ 1.000000e+00, %entry ]
  %vec.sroa.6.0 = phi float [ %mul4.i, %if.else ], [ 0.000000e+00, %entry ]
  %vec.sroa.11.0 = phi float [ %mul7.i, %if.else ], [ 0.000000e+00, %entry ]
  %vtable29 = load ptr, ptr %this, align 8
  %vfn30 = getelementptr inbounds i8, ptr %vtable29, i64 200
  %2 = load ptr, ptr %vfn30, align 8
  %call931 = tail call noundef i32 %2(ptr noundef nonnull align 8 dereferenceable(80) %this)
  %cmp1032 = icmp sgt i32 %call931, 0
  br i1 %cmp1032, label %arrayctor.loop.preheader, label %for.end32

arrayctor.loop.preheader:                         ; preds = %if.end, %for.inc31
  %k.036 = phi i32 [ %add, %for.inc31 ], [ 0, %if.end ]
  %maxDot.035 = phi float [ %maxDot.1, %for.inc31 ], [ 0xC3ABC16D60000000, %if.end ]
  %retval.sroa.4.034 = phi <2 x float> [ %retval.sroa.4.1, %for.inc31 ], [ zeroinitializer, %if.end ]
  %retval.sroa.0.033 = phi <2 x float> [ %retval.sroa.0.1, %for.inc31 ], [ zeroinitializer, %if.end ]
  %vtable11 = load ptr, ptr %this, align 8
  %vfn12 = getelementptr inbounds i8, ptr %vtable11, i64 200
  %3 = load ptr, ptr %vfn12, align 8
  %call13 = call noundef i32 %3(ptr noundef nonnull align 8 dereferenceable(80) %this)
  %sub = sub nsw i32 %call13, %k.036
  %cmp14 = icmp slt i32 %sub, 128
  br i1 %cmp14, label %cond.end, label %for.body21.preheader

cond.end:                                         ; preds = %arrayctor.loop.preheader
  %vtable15 = load ptr, ptr %this, align 8
  %vfn16 = getelementptr inbounds i8, ptr %vtable15, i64 200
  %4 = load ptr, ptr %vfn16, align 8
  %call17 = call noundef i32 %4(ptr noundef nonnull align 8 dereferenceable(80) %this)
  %sub18 = sub nsw i32 %call17, %k.036
  %cmp2027 = icmp sgt i32 %sub18, 0
  br i1 %cmp2027, label %for.body21.preheader, label %_ZNK9btVector36maxDotEPKS_lRf.exit

for.body21.preheader:                             ; preds = %arrayctor.loop.preheader, %cond.end
  %cond42 = phi i32 [ %sub18, %cond.end ], [ 128, %arrayctor.loop.preheader ]
  %wide.trip.count = zext nneg i32 %cond42 to i64
  br label %for.body21

for.body21:                                       ; preds = %for.body21.preheader, %for.body21
  %indvars.iv = phi i64 [ 0, %for.body21.preheader ], [ %indvars.iv.next, %for.body21 ]
  %arrayidx = getelementptr inbounds [128 x %class.btVector3], ptr %temp, i64 0, i64 %indvars.iv
  %vtable22 = load ptr, ptr %this, align 8
  %vfn23 = getelementptr inbounds i8, ptr %vtable22, i64 224
  %5 = load ptr, ptr %vfn23, align 8
  %6 = trunc i64 %indvars.iv to i32
  call void %5(ptr noundef nonnull align 8 dereferenceable(80) %this, i32 noundef %6, ptr noundef nonnull align 4 dereferenceable(16) %arrayidx)
  %indvars.iv.next = add nuw nsw i64 %indvars.iv, 1
  %exitcond.not = icmp eq i64 %indvars.iv.next, %wide.trip.count
  br i1 %exitcond.not, label %for.end, label %for.body21, !llvm.loop !15

for.end:                                          ; preds = %for.body21
  %conv = zext nneg i32 %cond42 to i64
  br label %for.body.i

for.body.i:                                       ; preds = %for.end, %for.body.i
  %indvars.iv.i = phi i64 [ %indvars.iv.next.i, %for.body.i ], [ 0, %for.end ]
  %maxDot1.09.i = phi float [ %maxDot1.1.i, %for.body.i ], [ 0xC7EFFFFFE0000000, %for.end ]
  %ptIndex.08.i = phi i32 [ %ptIndex.1.i, %for.body.i ], [ -1, %for.end ]
  %arrayidx.i = getelementptr inbounds %class.btVector3, ptr %temp, i64 %indvars.iv.i
  %7 = load float, ptr %arrayidx.i, align 16
  %arrayidx5.i.i14 = getelementptr inbounds i8, ptr %arrayidx.i, i64 4
  %8 = load float, ptr %arrayidx5.i.i14, align 4
  %mul8.i.i15 = fmul float %vec.sroa.6.0, %8
  %9 = call float @llvm.fmuladd.f32(float %7, float %vec.sroa.0.0, float %mul8.i.i15)
  %arrayidx10.i.i16 = getelementptr inbounds i8, ptr %arrayidx.i, i64 8
  %10 = load float, ptr %arrayidx10.i.i16, align 8
  %11 = call noundef float @llvm.fmuladd.f32(float %10, float %vec.sroa.11.0, float %9)
  %cmp2.i = fcmp ogt float %11, %maxDot1.09.i
  %12 = trunc i64 %indvars.iv.i to i32
  %ptIndex.1.i = select i1 %cmp2.i, i32 %12, i32 %ptIndex.08.i
  %maxDot1.1.i = select i1 %cmp2.i, float %11, float %maxDot1.09.i
  %indvars.iv.next.i = add nuw nsw i64 %indvars.iv.i, 1
  %exitcond.not.i = icmp eq i64 %indvars.iv.next.i, %conv
  br i1 %exitcond.not.i, label %for.end.loopexit.i, label %for.body.i, !llvm.loop !16

for.end.loopexit.i:                               ; preds = %for.body.i
  %13 = sext i32 %ptIndex.1.i to i64
  br label %_ZNK9btVector36maxDotEPKS_lRf.exit

_ZNK9btVector36maxDotEPKS_lRf.exit:               ; preds = %cond.end, %for.end.loopexit.i
  %ptIndex.0.lcssa.i = phi i64 [ %13, %for.end.loopexit.i ], [ -1, %cond.end ]
  %maxDot1.0.lcssa.i = phi float [ %maxDot1.1.i, %for.end.loopexit.i ], [ 0xC7EFFFFFE0000000, %cond.end ]
  %cmp26 = fcmp ogt float %maxDot1.0.lcssa.i, %maxDot.035
  br i1 %cmp26, label %if.then27, label %for.inc31

if.then27:                                        ; preds = %_ZNK9btVector36maxDotEPKS_lRf.exit
  %arrayidx29 = getelementptr inbounds [128 x %class.btVector3], ptr %temp, i64 0, i64 %ptIndex.0.lcssa.i
  %retval.sroa.0.0.copyload = load <2 x float>, ptr %arrayidx29, align 16
  %retval.sroa.4.0.arrayidx29.sroa_idx = getelementptr inbounds i8, ptr %arrayidx29, i64 8
  %retval.sroa.4.0.copyload = load <2 x float>, ptr %retval.sroa.4.0.arrayidx29.sroa_idx, align 8
  br label %for.inc31

for.inc31:                                        ; preds = %_ZNK9btVector36maxDotEPKS_lRf.exit, %if.then27
  %retval.sroa.0.1 = phi <2 x float> [ %retval.sroa.0.0.copyload, %if.then27 ], [ %retval.sroa.0.033, %_ZNK9btVector36maxDotEPKS_lRf.exit ]
  %retval.sroa.4.1 = phi <2 x float> [ %retval.sroa.4.0.copyload, %if.then27 ], [ %retval.sroa.4.034, %_ZNK9btVector36maxDotEPKS_lRf.exit ]
  %maxDot.1 = phi float [ %maxDot1.0.lcssa.i, %if.then27 ], [ %maxDot.035, %_ZNK9btVector36maxDotEPKS_lRf.exit ]
  %add = add nuw nsw i32 %k.036, 128
  %vtable = load ptr, ptr %this, align 8
  %vfn = getelementptr inbounds i8, ptr %vtable, i64 200
  %14 = load ptr, ptr %vfn, align 8
  %call9 = call noundef i32 %14(ptr noundef nonnull align 8 dereferenceable(80) %this)
  %cmp10 = icmp slt i32 %add, %call9
  br i1 %cmp10, label %arrayctor.loop.preheader, label %for.end32, !llvm.loop !17

for.end32:                                        ; preds = %for.inc31, %if.end
  %retval.sroa.0.0.lcssa = phi <2 x float> [ zeroinitializer, %if.end ], [ %retval.sroa.0.1, %for.inc31 ]
  %retval.sroa.4.0.lcssa = phi <2 x float> [ zeroinitializer, %if.end ], [ %retval.sroa.4.1, %for.inc31 ]
  %.fca.0.insert = insertvalue { <2 x float>, <2 x float> } poison, <2 x float> %retval.sroa.0.0.lcssa, 0
  %.fca.1.insert = insertvalue { <2 x float>, <2 x float> } %.fca.0.insert, <2 x float> %retval.sroa.4.0.lcssa, 1
  ret { <2 x float>, <2 x float> } %.fca.1.insert
}